cintervaltree.intervaltree
IntervalTree
p0
((lp1
cintervaltree.interval
Interval
p2
(I0
I1048576
(dp3
S'md5sum'
p4
S'ff56108517afa646a9f1db9d62690347'
p5
stp6
Rp7
ag2
(I1048576
I2097152
(dp8
S'md5sum'
p9
S'95d6ad080380f07f4230cfb49f291f32'
p10
stp11
Rp12
ag2
(I2097152
I3050255
(dp13
S'md5sum'
p14
S'e0a91ab31f8a62b3c09e726174d51788'
p15
stp16
Rp17
atp18
Rp19
.